; Function Attrs: mustprogress uwtable
define void @_ZN17grpc_auth_context15ensure_capacityEv(ptr nocapture noundef nonnull align 8 dereferenceable(56) %this) local_unnamed_addr #4 align 2 {
entry:
  %count = getelementptr inbounds i8, ptr %this, i64 24
  %0 = load i64, ptr %count, align 8
  %capacity = getelementptr inbounds i8, ptr %this, i64 32
  %1 = load i64, ptr %capacity, align 8
  %cmp = icmp eq i64 %0, %1
  br i1 %cmp, label %if.then, label %if.end

if.then:                                          ; preds = %entry
  %properties_ = getelementptr inbounds i8, ptr %this, i64 16
  %add = add i64 %0, 8
  %mul = shl i64 %0, 1
  %.sroa.speculated = tail call i64 @llvm.umax.i64(i64 %add, i64 %mul)
  store i64 %.sroa.speculated, ptr %capacity, align 8
  %2 = load ptr, ptr %properties_, align 8
  %mul13 = mul i64 %.sroa.speculated, 24
  %call14 = tail call ptr @gpr_realloc(ptr noundef %2, i64 noundef %mul13)
  store ptr %call14, ptr %properties_, align 8
  br label %if.end

if.end:                                           ; preds = %if.then, %entry
  ret void
}